target datalayout = "e-m:e-p270:32:32-p271:32:32-p272:64:64-i64:64-i128:128-f80:128-n8:16:32:64-S128"
target triple = "x86_64-pc-linux-gnu"

@.str.2 = private unnamed_addr constant [79 x i8] c"OLE2 [cli_ole2_get_property_name2]: Unable to allocate memory for newname: %u\0A\00", align 1

; Function Attrs: nounwind uwtable
define ptr @cli_ole2_get_property_name2(ptr noundef %0, i32 noundef %1) #0 {
  %3 = alloca ptr, align 8
  %4 = alloca ptr, align 8
  %5 = alloca i32, align 4
  %6 = alloca i32, align 4
  %7 = alloca i32, align 4
  %8 = alloca ptr, align 8
  %9 = alloca i16, align 2
  store ptr %0, ptr %4, align 8
  store i32 %1, ptr %5, align 4
  store ptr null, ptr %8, align 8
  %10 = load ptr, ptr %4, align 8
  %11 = getelementptr inbounds i8, ptr %10, i64 0
  %12 = load i8, ptr %11, align 1
  %13 = sext i8 %12 to i32
  %14 = icmp eq i32 %13, 0
  br i1 %14, label %15, label %21

15:                                               ; preds = %2
  %16 = load ptr, ptr %4, align 8
  %17 = getelementptr inbounds i8, ptr %16, i64 1
  %18 = load i8, ptr %17, align 1
  %19 = sext i8 %18 to i32
  %20 = icmp eq i32 %19, 0
  br i1 %20, label %27, label %21

21:                                               ; preds = %15, %2
  %22 = load i32, ptr %5, align 4
  %23 = icmp sle i32 %22, 0
  br i1 %23, label %27, label %24

24:                                               ; preds = %21
  %25 = load i32, ptr %5, align 4
  %26 = icmp sgt i32 %25, 128
  br i1 %26, label %27, label %28

27:                                               ; preds = %24, %21, %15
  store ptr null, ptr %3, align 8
  br label %218

28:                                               ; preds = %24
  br label %29

29:                                               ; preds = %28
  %30 = load i32, ptr %5, align 4
  %31 = mul nsw i32 %30, 5
  %32 = add nsw i32 %31, 1
  %33 = sext i32 %32 to i64
  %34 = call ptr @cli_max_malloc(i64 noundef %33)
  store ptr %34, ptr %8, align 8
  %35 = load ptr, ptr %8, align 8
  %36 = icmp eq ptr null, %35
  br i1 %36, label %37, label %42

37:                                               ; preds = %29
  br label %38

38:                                               ; preds = %37
  %39 = load i32, ptr %5, align 4
  %40 = mul nsw i32 %39, 5
  call void (ptr, ...) @cli_errmsg(ptr noundef @.str.2, i32 noundef %40)
  br label %41

41:                                               ; preds = %38
  br label %216

42:                                               ; preds = %29
  br label %43

43:                                               ; preds = %42
  store i32 0, ptr %7, align 4
  store i32 0, ptr %6, align 4
  br label %44

44:                                               ; preds = %202, %43
  %45 = load i32, ptr %6, align 4
  %46 = load i32, ptr %5, align 4
  %47 = sub nsw i32 %46, 2
  %48 = icmp slt i32 %45, %47
  br i1 %48, label %49, label %205

49:                                               ; preds = %44
  %50 = load ptr, ptr %4, align 8
  %51 = load i32, ptr %6, align 4
  %52 = sext i32 %51 to i64
  %53 = getelementptr inbounds i8, ptr %50, i64 %52
  %54 = load i8, ptr %53, align 1
  %55 = sext i8 %54 to i32
  %56 = and i32 %55, 128
  %57 = icmp ne i32 %56, 0
  br i1 %57, label %96, label %58

58:                                               ; preds = %49
  %59 = call ptr @__ctype_b_loc() #11
  %60 = load ptr, ptr %59, align 8
  %61 = load ptr, ptr %4, align 8
  %62 = load i32, ptr %6, align 4
  %63 = sext i32 %62 to i64
  %64 = getelementptr inbounds i8, ptr %61, i64 %63
  %65 = load i8, ptr %64, align 1
  %66 = sext i8 %65 to i32
  %67 = sext i32 %66 to i64
  %68 = getelementptr inbounds i16, ptr %60, i64 %67
  %69 = load i16, ptr %68, align 2
  %70 = zext i16 %69 to i32
  %71 = and i32 %70, 16384
  %72 = icmp ne i32 %71, 0
  br i1 %72, label %73, label %96

73:                                               ; preds = %58
  %74 = load ptr, ptr %4, align 8
  %75 = load i32, ptr %6, align 4
  %76 = add nsw i32 %75, 1
  %77 = sext i32 %76 to i64
  %78 = getelementptr inbounds i8, ptr %74, i64 %77
  %79 = load i8, ptr %78, align 1
  %80 = sext i8 %79 to i32
  %81 = icmp eq i32 %80, 0
  br i1 %81, label %82, label %96

82:                                               ; preds = %73
  %83 = load ptr, ptr %4, align 8
  %84 = load i32, ptr %6, align 4
  %85 = sext i32 %84 to i64
  %86 = getelementptr inbounds i8, ptr %83, i64 %85
  %87 = load i8, ptr %86, align 1
  %88 = sext i8 %87 to i32
  %89 = call i32 @tolower(i32 noundef %88) #12
  %90 = trunc i32 %89 to i8
  %91 = load ptr, ptr %8, align 8
  %92 = load i32, ptr %7, align 4
  %93 = add nsw i32 %92, 1
  store i32 %93, ptr %7, align 4
  %94 = sext i32 %92 to i64
  %95 = getelementptr inbounds i8, ptr %91, i64 %94
  store i8 %90, ptr %95, align 1
  br label %201

96:                                               ; preds = %73, %58, %49
  %97 = load ptr, ptr %4, align 8
  %98 = load i32, ptr %6, align 4
  %99 = sext i32 %98 to i64
  %100 = getelementptr inbounds i8, ptr %97, i64 %99
  %101 = load i8, ptr %100, align 1
  %102 = sext i8 %101 to i32
  %103 = icmp slt i32 %102, 10
  br i1 %103, label %104, label %140

104:                                              ; preds = %96
  %105 = load ptr, ptr %4, align 8
  %106 = load i32, ptr %6, align 4
  %107 = sext i32 %106 to i64
  %108 = getelementptr inbounds i8, ptr %105, i64 %107
  %109 = load i8, ptr %108, align 1
  %110 = sext i8 %109 to i32
  %111 = icmp sge i32 %110, 0
  br i1 %111, label %112, label %140

112:                                              ; preds = %104
  %113 = load ptr, ptr %4, align 8
  %114 = load i32, ptr %6, align 4
  %115 = add nsw i32 %114, 1
  %116 = sext i32 %115 to i64
  %117 = getelementptr inbounds i8, ptr %113, i64 %116
  %118 = load i8, ptr %117, align 1
  %119 = sext i8 %118 to i32
  %120 = icmp eq i32 %119, 0
  br i1 %120, label %121, label %140

121:                                              ; preds = %112
  %122 = load ptr, ptr %8, align 8
  %123 = load i32, ptr %7, align 4
  %124 = add nsw i32 %123, 1
  store i32 %124, ptr %7, align 4
  %125 = sext i32 %123 to i64
  %126 = getelementptr inbounds i8, ptr %122, i64 %125
  store i8 95, ptr %126, align 1
  %127 = load ptr, ptr %4, align 8
  %128 = load i32, ptr %6, align 4
  %129 = sext i32 %128 to i64
  %130 = getelementptr inbounds i8, ptr %127, i64 %129
  %131 = load i8, ptr %130, align 1
  %132 = sext i8 %131 to i32
  %133 = add nsw i32 %132, 48
  %134 = trunc i32 %133 to i8
  %135 = load ptr, ptr %8, align 8
  %136 = load i32, ptr %7, align 4
  %137 = add nsw i32 %136, 1
  store i32 %137, ptr %7, align 4
  %138 = sext i32 %136 to i64
  %139 = getelementptr inbounds i8, ptr %135, i64 %138
  store i8 %134, ptr %139, align 1
  br label %195

140:                                              ; preds = %112, %104, %96
  %141 = load ptr, ptr %4, align 8
  %142 = load i32, ptr %6, align 4
  %143 = sext i32 %142 to i64
  %144 = getelementptr inbounds i8, ptr %141, i64 %143
  %145 = load i8, ptr %144, align 1
  %146 = sext i8 %145 to i16
  %147 = zext i16 %146 to i32
  %148 = shl i32 %147, 8
  %149 = load ptr, ptr %4, align 8
  %150 = load i32, ptr %6, align 4
  %151 = add nsw i32 %150, 1
  %152 = sext i32 %151 to i64
  %153 = getelementptr inbounds i8, ptr %149, i64 %152
  %154 = load i8, ptr %153, align 1
  %155 = sext i8 %154 to i32
  %156 = or i32 %148, %155
  %157 = trunc i32 %156 to i16
  store i16 %157, ptr %9, align 2
  %158 = load ptr, ptr %8, align 8
  %159 = load i32, ptr %7, align 4
  %160 = add nsw i32 %159, 1
  store i32 %160, ptr %7, align 4
  %161 = sext i32 %159 to i64
  %162 = getelementptr inbounds i8, ptr %158, i64 %161
  store i8 95, ptr %162, align 1
  %163 = load i16, ptr %9, align 2
  %164 = zext i16 %163 to i32
  %165 = and i32 %164, 15
  %166 = add nsw i32 97, %165
  %167 = trunc i32 %166 to i8
  %168 = load ptr, ptr %8, align 8
  %169 = load i32, ptr %7, align 4
  %170 = add nsw i32 %169, 1
  store i32 %170, ptr %7, align 4
  %171 = sext i32 %169 to i64
  %172 = getelementptr inbounds i8, ptr %168, i64 %171
  store i8 %167, ptr %172, align 1
  %173 = load i16, ptr %9, align 2
  %174 = zext i16 %173 to i32
  %175 = ashr i32 %174, 4
  %176 = and i32 %175, 15
  %177 = add nsw i32 97, %176
  %178 = trunc i32 %177 to i8
  %179 = load ptr, ptr %8, align 8
  %180 = load i32, ptr %7, align 4
  %181 = add nsw i32 %180, 1
  store i32 %181, ptr %7, align 4
  %182 = sext i32 %180 to i64
  %183 = getelementptr inbounds i8, ptr %179, i64 %182
  store i8 %178, ptr %183, align 1
  %184 = load i16, ptr %9, align 2
  %185 = zext i16 %184 to i32
  %186 = ashr i32 %185, 8
  %187 = and i32 %186, 15
  %188 = add nsw i32 97, %187
  %189 = trunc i32 %188 to i8
  %190 = load ptr, ptr %8, align 8
  %191 = load i32, ptr %7, align 4
  %192 = add nsw i32 %191, 1
  store i32 %192, ptr %7, align 4
  %193 = sext i32 %191 to i64
  %194 = getelementptr inbounds i8, ptr %190, i64 %193
  store i8 %189, ptr %194, align 1
  br label %195

195:                                              ; preds = %140, %121
  %196 = load ptr, ptr %8, align 8
  %197 = load i32, ptr %7, align 4
  %198 = add nsw i32 %197, 1
  store i32 %198, ptr %7, align 4
  %199 = sext i32 %197 to i64
  %200 = getelementptr inbounds i8, ptr %196, i64 %199
  store i8 95, ptr %200, align 1
  br label %201

201:                                              ; preds = %195, %82
  br label %202

202:                                              ; preds = %201
  %203 = load i32, ptr %6, align 4
  %204 = add nsw i32 %203, 2
  store i32 %204, ptr %6, align 4
  br label %44

205:                                              ; preds = %44
  %206 = load ptr, ptr %8, align 8
  %207 = load i32, ptr %7, align 4
  %208 = sext i32 %207 to i64
  %209 = getelementptr inbounds i8, ptr %206, i64 %208
  store i8 0, ptr %209, align 1
  %210 = load ptr, ptr %8, align 8
  %211 = call i64 @strlen(ptr noundef %210) #12
  %212 = icmp eq i64 %211, 0
  br i1 %212, label %213, label %215

213:                                              ; preds = %205
  %214 = load ptr, ptr %8, align 8
  call void @free(ptr noundef %214) #10
  store ptr null, ptr %8, align 8
  br label %215

215:                                              ; preds = %213, %205
  br label %216

216:                                              ; preds = %215, %41
  %217 = load ptr, ptr %8, align 8
  store ptr %217, ptr %3, align 8
  br label %218

218:                                              ; preds = %216, %27
  %219 = load ptr, ptr %3, align 8
  ret ptr %219
}