; Function Attrs: nounwind uwtable
define ptr @cli_ole2_get_property_name2(ptr nocapture noundef readonly %0, i32 noundef %1) local_unnamed_addr #2 {
  %3 = load i8, ptr %0, align 1
  %4 = icmp eq i8 %3, 0
  br i1 %4, label %5, label %11

5:                                                ; preds = %2
  %6 = getelementptr inbounds i8, ptr %0, i64 1
  %7 = load i8, ptr %6, align 1
  %8 = icmp eq i8 %7, 0
  %9 = add i32 %1, -129
  %10 = icmp ult i32 %9, -128
  %or.cond64 = or i1 %10, %8
  br i1 %or.cond64, label %83, label %13

11:                                               ; preds = %2
  %12 = add i32 %1, -129
  %or.cond65 = icmp ult i32 %12, -128
  br i1 %or.cond65, label %83, label %13

13:                                               ; preds = %11, %5
  %14 = mul nuw nsw i32 %1, 5
  %15 = add nuw nsw i32 %14, 1
  %16 = zext nneg i32 %15 to i64
  %17 = tail call ptr @cli_max_malloc(i64 noundef %16) #21
  %18 = icmp eq ptr %17, null
  br i1 %18, label %22, label %.preheader

.preheader:                                       ; preds = %13
  %19 = icmp ugt i32 %1, 2
  br i1 %19, label %.lr.ph.preheader, label %._crit_edge

.lr.ph.preheader:                                 ; preds = %.preheader
  %20 = add nsw i32 %1, -2
  %21 = zext nneg i32 %20 to i64
  br label %.lr.ph

22:                                               ; preds = %13
  tail call void (ptr, ...) @cli_errmsg(ptr noundef nonnull @.str.2, i32 noundef %14) #21
  br label %83

.lr.ph:                                           ; preds = %.lr.ph.preheader, %75
  %indvars.iv = phi i64 [ 0, %.lr.ph.preheader ], [ %indvars.iv.next, %75 ]
  %.05770 = phi i32 [ 0, %.lr.ph.preheader ], [ %.2, %75 ]
  %23 = getelementptr inbounds i8, ptr %0, i64 %indvars.iv
  %24 = load i8, ptr %23, align 1
  %25 = sext i8 %24 to i32
  %26 = and i32 %25, 128
  %.not = icmp eq i32 %26, 0
  br i1 %.not, label %27, label %42

27:                                               ; preds = %.lr.ph
  %28 = tail call ptr @__ctype_b_loc() #22
  %29 = load ptr, ptr %28, align 8
  %30 = sext i8 %24 to i64
  %31 = getelementptr inbounds i16, ptr %29, i64 %30
  %32 = load i16, ptr %31, align 2
  %33 = and i16 %32, 16384
  %.not63 = icmp eq i16 %33, 0
  br i1 %.not63, label %42, label %34

34:                                               ; preds = %27
  %35 = or disjoint i64 %indvars.iv, 1
  %36 = getelementptr inbounds i8, ptr %0, i64 %35
  %37 = load i8, ptr %36, align 1
  %38 = icmp eq i8 %37, 0
  br i1 %38, label %39, label %42

39:                                               ; preds = %34
  %40 = tail call i32 @tolower(i32 noundef %25) #23
  %41 = trunc i32 %40 to i8
  br label %75

42:                                               ; preds = %34, %27, %.lr.ph
  %or.cond67 = icmp ult i8 %24, 10
  %43 = or disjoint i64 %indvars.iv, 1
  br i1 %or.cond67, label %44, label %._crit_edge72

44:                                               ; preds = %42
  %45 = getelementptr inbounds i8, ptr %0, i64 %43
  %46 = load i8, ptr %45, align 1
  %47 = icmp eq i8 %46, 0
  br i1 %47, label %48, label %._crit_edge72

48:                                               ; preds = %44
  %49 = sext i32 %.05770 to i64
  %50 = getelementptr inbounds i8, ptr %17, i64 %49
  store i8 95, ptr %50, align 1
  %51 = load i8, ptr %23, align 1
  %52 = add i8 %51, 48
  %53 = add nsw i32 %.05770, 2
  %54 = getelementptr i8, ptr %50, i64 1
  store i8 %52, ptr %54, align 1
  br label %75

._crit_edge72:                                    ; preds = %42, %44
  %55 = zext i8 %24 to i32
  %56 = shl nuw nsw i32 %55, 8
  %57 = getelementptr inbounds i8, ptr %0, i64 %43
  %58 = load i8, ptr %57, align 1
  %59 = sext i8 %58 to i32
  %60 = sext i32 %.05770 to i64
  %61 = getelementptr inbounds i8, ptr %17, i64 %60
  store i8 95, ptr %61, align 1
  %62 = or i32 %56, %59
  %63 = and i8 %58, 15
  %64 = add nuw nsw i8 %63, 97
  %65 = getelementptr i8, ptr %61, i64 1
  store i8 %64, ptr %65, align 1
  %66 = lshr i8 %58, 4
  %67 = add nuw nsw i8 %66, 97
  %68 = getelementptr i8, ptr %61, i64 2
  store i8 %67, ptr %68, align 1
  %69 = lshr i32 %62, 8
  %70 = trunc i32 %69 to i8
  %71 = and i8 %70, 15
  %72 = add nuw nsw i8 %71, 97
  %73 = add nsw i32 %.05770, 4
  %74 = getelementptr i8, ptr %61, i64 3
  store i8 %72, ptr %74, align 1
  br label %75

75:                                               ; preds = %48, %._crit_edge72, %39
  %.05770.sink = phi i32 [ %.05770, %39 ], [ %53, %48 ], [ %73, %._crit_edge72 ]
  %.sink = phi i8 [ %41, %39 ], [ 95, %48 ], [ 95, %._crit_edge72 ]
  %76 = sext i32 %.05770.sink to i64
  %77 = getelementptr inbounds i8, ptr %17, i64 %76
  store i8 %.sink, ptr %77, align 1
  %.2 = add nsw i32 %.05770.sink, 1
  %indvars.iv.next = add nuw nsw i64 %indvars.iv, 2
  %78 = icmp ult i64 %indvars.iv.next, %21
  br i1 %78, label %.lr.ph, label %._crit_edge.loopexit

._crit_edge.loopexit:                             ; preds = %75
  %79 = sext i32 %.2 to i64
  br label %._crit_edge

._crit_edge:                                      ; preds = %._crit_edge.loopexit, %.preheader
  %.057.lcssa = phi i64 [ 0, %.preheader ], [ %79, %._crit_edge.loopexit ]
  %80 = getelementptr inbounds i8, ptr %17, i64 %.057.lcssa
  store i8 0, ptr %80, align 1
  %char0 = load i8, ptr %17, align 1
  %81 = icmp eq i8 %char0, 0
  br i1 %81, label %82, label %83

82:                                               ; preds = %._crit_edge
  tail call void @free(ptr noundef nonnull %17) #21
  br label %83

83:                                               ; preds = %22, %82, %._crit_edge, %5, %11
  %.0 = phi ptr [ null, %11 ], [ null, %5 ], [ null, %22 ], [ null, %82 ], [ %17, %._crit_edge ]
  ret ptr %.0
}